; Function Attrs: mustprogress nofree norecurse nosync nounwind willreturn memory(argmem: write) uwtable
define internal void @xdg_output_handle_logical_position(ptr noundef writeonly captures(none) initializes((68, 76), (96, 97)) %0, ptr readnone captures(none) %1, i32 noundef %2, i32 noundef %3) #9 {
  %5 = getelementptr inbounds nuw i8, ptr %0, i64 68
  store i32 %2, ptr %5, align 4
  %6 = getelementptr inbounds nuw i8, ptr %0, i64 72
  store i32 %3, ptr %6, align 8
  %7 = getelementptr inbounds nuw i8, ptr %0, i64 96
  store i8 1, ptr %7, align 8
  ret void
}